target datalayout = "e-m:e-p270:32:32-p271:32:32-p272:64:64-i64:64-i128:128-f80:128-n8:16:32:64-S128"
target triple = "x86_64-pc-linux-gnu"

%struct.timespec = type { i64, i64 }

@err_prefix = internal constant [1 x i8] zeroinitializer, align 1
@csv_format = internal global i32 0, align 4
@lng_index = internal global i32 0, align 4
@.str.78 = private unnamed_addr constant [28 x i8] c"%s%s L%d error %d for \22%s\22\0A\00", align 1
@.str.79 = private unnamed_addr constant [125 x i8] c"generated/home/dtcxzyw/WorkSpace/Projects/compilers/llvm-opt-benchmark/bench/wolfssl/wolfssl/wolfcrypt/benchmark/benchmark.c\00", align 1
@.str.80 = private unnamed_addr constant [35 x i8] c"clock_gettime(CLOCK_REALTIME, &tv)\00", align 1
@stdout = external global ptr, align 8
@base2 = internal global i32 1, align 4
@.str.107 = private unnamed_addr constant [2 x i8] c"\0A\00", align 1
@total_cycles = internal thread_local global i64 0, align 8
@bench_result_words1 = internal global [2 x [4 x ptr]] [[4 x ptr] [ptr @.str.117, ptr @.str.118, ptr @.str.119, ptr null], [4 x ptr] [ptr @.str.120, ptr @.str.121, ptr @.str.122, ptr null]], align 16
@bench_stats_sym_finish.sym_header_printed = internal global i32 0, align 4
@.str.108 = private unnamed_addr constant [23 x i8] c"\0A\0ASymmetric Ciphers:\0A\0A\00", align 1
@.str.109 = private unnamed_addr constant [32 x i8] c"Algorithm,MB/s,Cycles per byte,\00", align 1
@.str.110 = private unnamed_addr constant [7 x i8] c"%s,%f,\00", align 1
@.str.111 = private unnamed_addr constant [7 x i8] c"%.*f,\0A\00", align 1
@.str.112 = private unnamed_addr constant [41 x i8] c"%-24s%s %*.*f %s %s %*.*f %s, %*.*f %s/s\00", align 1
@.str.113 = private unnamed_addr constant [1 x i8] zeroinitializer, align 1
@.str.114 = private unnamed_addr constant [13 x i8] c" %s = %*.*f\0A\00", align 1
@.str.115 = private unnamed_addr constant [3 x i8] c"%s\00", align 1
@.str.116 = private unnamed_addr constant [27 x i8] c"%sBenchmark %s failed: %d\0A\00", align 1
@.str.123 = private unnamed_addr constant [4 x i8] c"MiB\00", align 1
@.str.124 = private unnamed_addr constant [4 x i8] c"KiB\00", align 1
@.str.125 = private unnamed_addr constant [6 x i8] c"bytes\00", align 1
@.str.126 = private unnamed_addr constant [3 x i8] c"MB\00", align 1
@.str.127 = private unnamed_addr constant [3 x i8] c"KB\00", align 1

; Function Attrs: nounwind uwtable
define internal ptr @get_blocktype_base10(ptr noundef %0) #0 {
  %2 = alloca ptr, align 8
  %3 = alloca ptr, align 8
  store ptr %0, ptr %2, align 8, !tbaa !25
  call void @llvm.lifetime.start.p0(i64 8, ptr %3) #12
  %4 = load ptr, ptr %2, align 8, !tbaa !25
  %5 = load double, ptr %4, align 8, !tbaa !20
  %6 = fcmp ogt double %5, 1.000000e+06
  br i1 %6, label %7, label %11

7:                                                ; preds = %1
  %8 = load ptr, ptr %2, align 8, !tbaa !25
  %9 = load double, ptr %8, align 8, !tbaa !20
  %10 = fdiv double %9, 1.000000e+06
  store double %10, ptr %8, align 8, !tbaa !20
  store ptr @.str.126, ptr %3, align 8, !tbaa !12
  br label %21

11:                                               ; preds = %1
  %12 = load ptr, ptr %2, align 8, !tbaa !25
  %13 = load double, ptr %12, align 8, !tbaa !20
  %14 = fcmp ogt double %13, 1.000000e+03
  br i1 %14, label %15, label %19

15:                                               ; preds = %11
  %16 = load ptr, ptr %2, align 8, !tbaa !25
  %17 = load double, ptr %16, align 8, !tbaa !20
  %18 = fdiv double %17, 1.000000e+03
  store double %18, ptr %16, align 8, !tbaa !20
  store ptr @.str.127, ptr %3, align 8, !tbaa !12
  br label %20

19:                                               ; preds = %11
  store ptr @.str.125, ptr %3, align 8, !tbaa !12
  br label %20

20:                                               ; preds = %19, %15
  br label %21

21:                                               ; preds = %20, %7
  %22 = load ptr, ptr %3, align 8, !tbaa !12
  call void @llvm.lifetime.end.p0(i64 8, ptr %3) #12
  ret ptr %22
}

; Function Attrs: nounwind uwtable
define internal ptr @get_blocktype(ptr noundef %0) #0 {
  %2 = alloca ptr, align 8
  %3 = alloca ptr, align 8
  store ptr %0, ptr %2, align 8, !tbaa !25
  call void @llvm.lifetime.start.p0(i64 8, ptr %3) #12
  %4 = load ptr, ptr %2, align 8, !tbaa !25
  %5 = load double, ptr %4, align 8, !tbaa !20
  %6 = fcmp ogt double %5, 0x4130000000000000
  br i1 %6, label %7, label %11

7:                                                ; preds = %1
  %8 = load ptr, ptr %2, align 8, !tbaa !25
  %9 = load double, ptr %8, align 8, !tbaa !20
  %10 = fdiv double %9, 0x4130000000000000
  store double %10, ptr %8, align 8, !tbaa !20
  store ptr @.str.123, ptr %3, align 8, !tbaa !12
  br label %21

11:                                               ; preds = %1
  %12 = load ptr, ptr %2, align 8, !tbaa !25
  %13 = load double, ptr %12, align 8, !tbaa !20
  %14 = fcmp ogt double %13, 1.024000e+03
  br i1 %14, label %15, label %19

15:                                               ; preds = %11
  %16 = load ptr, ptr %2, align 8, !tbaa !25
  %17 = load double, ptr %16, align 8, !tbaa !20
  %18 = fdiv double %17, 1.024000e+03
  store double %18, ptr %16, align 8, !tbaa !20
  store ptr @.str.124, ptr %3, align 8, !tbaa !12
  br label %20

19:                                               ; preds = %11
  store ptr @.str.125, ptr %3, align 8, !tbaa !12
  br label %20

20:                                               ; preds = %19, %15
  br label %21

21:                                               ; preds = %20, %7
  %22 = load ptr, ptr %3, align 8, !tbaa !12
  call void @llvm.lifetime.end.p0(i64 8, ptr %3) #12
  ret ptr %22
}

; Function Attrs: nounwind uwtable
define dso_local double @current_time(i32 noundef %0) #0 {
  %2 = alloca i32, align 4
  %3 = alloca %struct.timespec, align 8
  %4 = alloca i32, align 4
  store i32 %0, ptr %2, align 4, !tbaa !4
  call void @llvm.lifetime.start.p0(i64 16, ptr %3) #12
  br label %5

5:                                                ; preds = %1
  call void @llvm.lifetime.start.p0(i64 4, ptr %4) #12
  %6 = call i32 @clock_gettime(i32 noundef 0, ptr noundef %3) #12
  store i32 %6, ptr %4, align 4, !tbaa !4
  %7 = load i32, ptr %4, align 4, !tbaa !4
  %8 = icmp slt i32 %7, 0
  br i1 %8, label %9, label %15

9:                                                ; preds = %5
  %10 = call ptr @__errno_location() #14
  %11 = load i32, ptr %10, align 4, !tbaa !4
  %12 = call i32 (ptr, ...) @printf(ptr noundef @.str.78, ptr noundef @err_prefix, ptr noundef @.str.79, i32 noundef 14994, i32 noundef %11, ptr noundef @.str.80)
  %13 = load ptr, ptr @stdout, align 8, !tbaa !14
  %14 = call i32 @fflush(ptr noundef %13)
  call void @_exit(i32 noundef 1) #15
  unreachable

15:                                               ; preds = %5
  call void @llvm.lifetime.end.p0(i64 4, ptr %4) #12
  br label %16

16:                                               ; preds = %15
  br label %17

17:                                               ; preds = %16
  %18 = getelementptr inbounds nuw %struct.timespec, ptr %3, i32 0, i32 0
  %19 = load i64, ptr %18, align 8, !tbaa !241
  %20 = sitofp i64 %19 to double
  %21 = getelementptr inbounds nuw %struct.timespec, ptr %3, i32 0, i32 1
  %22 = load i64, ptr %21, align 8, !tbaa !243
  %23 = sitofp i64 %22 to double
  %24 = fdiv double %23, 1.000000e+09
  %25 = fadd double %20, %24
  call void @llvm.lifetime.end.p0(i64 16, ptr %3) #12
  ret double %25
}

; Function Attrs: inlinehint nounwind uwtable
define internal i64 @get_intel_cycles() #3 {
  %1 = alloca i32, align 4
  %2 = alloca i32, align 4
  call void @llvm.lifetime.start.p0(i64 4, ptr %1) #12
  call void @llvm.lifetime.start.p0(i64 4, ptr %2) #12
  %3 = call { i32, i32 } asm sideeffect "cpuid\0A\09rdtsc", "={ax},={dx},{ax},~{ebx},~{ecx},~{dirflag},~{fpsr},~{flags}"(i32 0) #12, !srcloc !261
  %4 = extractvalue { i32, i32 } %3, 0
  %5 = extractvalue { i32, i32 } %3, 1
  store i32 %4, ptr %1, align 4, !tbaa !4
  store i32 %5, ptr %2, align 4, !tbaa !4
  %6 = load i32, ptr %1, align 4, !tbaa !4
  %7 = zext i32 %6 to i64
  %8 = load i32, ptr %2, align 4, !tbaa !4
  %9 = zext i32 %8 to i64
  %10 = shl i64 %9, 32
  %11 = or i64 %7, %10
  call void @llvm.lifetime.end.p0(i64 4, ptr %2) #12
  call void @llvm.lifetime.end.p0(i64 4, ptr %1) #12
  ret i64 %11
}

; Function Attrs: nounwind uwtable
define internal void @bench_stats_sym_finish(ptr noundef %0, i32 noundef %1, i32 noundef %2, i32 noundef %3, double noundef %4, i32 noundef %5) #0 {
  %7 = alloca ptr, align 8
  %8 = alloca i32, align 4
  %9 = alloca i32, align 4
  %10 = alloca i32, align 4
  %11 = alloca double, align 8
  %12 = alloca i32, align 4
  %13 = alloca double, align 8
  %14 = alloca double, align 8
  %15 = alloca double, align 8
  %16 = alloca ptr, align 8
  %17 = alloca [150 x i8], align 16
  %18 = alloca ptr, align 8
  store ptr %0, ptr %7, align 8, !tbaa !12
  store i32 %1, ptr %8, align 4, !tbaa !4
  store i32 %2, ptr %9, align 4, !tbaa !4
  store i32 %3, ptr %10, align 4, !tbaa !4
  store double %4, ptr %11, align 8, !tbaa !20
  store i32 %5, ptr %12, align 4, !tbaa !4
  call void @llvm.lifetime.start.p0(i64 8, ptr %13) #12
  call void @llvm.lifetime.start.p0(i64 8, ptr %14) #12
  store double 0.000000e+00, ptr %14, align 8, !tbaa !20
  call void @llvm.lifetime.start.p0(i64 8, ptr %15) #12
  %19 = load i32, ptr %9, align 4, !tbaa !4
  %20 = sitofp i32 %19 to double
  store double %20, ptr %15, align 8, !tbaa !20
  call void @llvm.lifetime.start.p0(i64 8, ptr %16) #12
  call void @llvm.lifetime.start.p0(i64 150, ptr %17) #12
  call void @llvm.lifetime.start.p0(i64 8, ptr %18) #12
  %21 = load i32, ptr @lng_index, align 4, !tbaa !4
  %22 = sext i32 %21 to i64
  %23 = getelementptr inbounds [2 x [4 x ptr]], ptr @bench_result_words1, i64 0, i64 %22
  %24 = getelementptr inbounds [4 x ptr], ptr %23, i64 0, i64 0
  store ptr %24, ptr %18, align 8, !tbaa !27
  %25 = getelementptr inbounds [150 x i8], ptr %17, i64 0, i64 0
  call void @llvm.memset.p0.i64(ptr align 16 %25, i8 0, i64 150, i1 false)
  %26 = call i64 @get_intel_cycles()
  %27 = call align 8 ptr @llvm.threadlocal.address.p0(ptr align 8 @total_cycles)
  %28 = load i64, ptr %27, align 8, !tbaa !10
  %29 = sub i64 %26, %28
  %30 = call align 8 ptr @llvm.threadlocal.address.p0(ptr align 8 @total_cycles)
  store i64 %29, ptr %30, align 8, !tbaa !10
  %31 = call double @current_time(i32 noundef 0)
  %32 = load double, ptr %11, align 8, !tbaa !20
  %33 = fsub double %31, %32
  store double %33, ptr %13, align 8, !tbaa !20
  %34 = load i32, ptr %10, align 4, !tbaa !4
  %35 = uitofp i32 %34 to double
  %36 = load double, ptr %15, align 8, !tbaa !20
  %37 = fmul double %36, %35
  store double %37, ptr %15, align 8, !tbaa !20
  %38 = load i32, ptr @csv_format, align 4, !tbaa !4
  %39 = icmp eq i32 %38, 1
  br i1 %39, label %40, label %48

40:                                               ; preds = %6
  %41 = load i32, ptr @bench_stats_sym_finish.sym_header_printed, align 4, !tbaa !4
  %42 = icmp eq i32 %41, 0
  br i1 %42, label %43, label %47

43:                                               ; preds = %40
  %44 = call i32 (ptr, ...) @printf(ptr noundef @.str.108)
  %45 = call i32 (ptr, ...) @printf(ptr noundef @.str.109)
  %46 = call i32 (ptr, ...) @printf(ptr noundef @.str.107)
  store i32 1, ptr @bench_stats_sym_finish.sym_header_printed, align 4, !tbaa !4
  br label %47

47:                                               ; preds = %43, %40
  br label %48

48:                                               ; preds = %47, %6
  %49 = load i32, ptr @base2, align 4, !tbaa !4
  %50 = icmp ne i32 %49, 0
  br i1 %50, label %51, label %53

51:                                               ; preds = %48
  %52 = call ptr @get_blocktype(ptr noundef %15)
  store ptr %52, ptr %16, align 8, !tbaa !12
  br label %55

53:                                               ; preds = %48
  %54 = call ptr @get_blocktype_base10(ptr noundef %15)
  store ptr %54, ptr %16, align 8, !tbaa !12
  br label %55

55:                                               ; preds = %53, %51
  %56 = load double, ptr %13, align 8, !tbaa !20
  %57 = fcmp ogt double %56, 0.000000e+00
  br i1 %57, label %58, label %63

58:                                               ; preds = %55
  %59 = load double, ptr %13, align 8, !tbaa !20
  %60 = fdiv double 1.000000e+00, %59
  %61 = load double, ptr %15, align 8, !tbaa !20
  %62 = fmul double %60, %61
  store double %62, ptr %14, align 8, !tbaa !20
  br label %63

63:                                               ; preds = %58, %55
  br label %64

64:                                               ; preds = %63
  br label %65

65:                                               ; preds = %64
  br label %66

66:                                               ; preds = %65
  %67 = load i32, ptr @csv_format, align 4, !tbaa !4
  %68 = icmp eq i32 %67, 1
  br i1 %68, label %69, label %98

69:                                               ; preds = %66
  %70 = getelementptr inbounds [150 x i8], ptr %17, i64 0, i64 0
  %71 = load ptr, ptr %7, align 8, !tbaa !12
  %72 = load double, ptr %14, align 8, !tbaa !20
  %73 = call i32 (ptr, i64, ptr, ...) @snprintf(ptr noundef %70, i64 noundef 150, ptr noundef @.str.110, ptr noundef %71, double noundef %72) #12
  %74 = getelementptr inbounds [150 x i8], ptr %17, i64 0, i64 0
  %75 = getelementptr inbounds [150 x i8], ptr %17, i64 0, i64 0
  %76 = call i64 @strlen(ptr noundef %75) #13
  %77 = getelementptr inbounds nuw i8, ptr %74, i64 %76
  %78 = getelementptr inbounds [150 x i8], ptr %17, i64 0, i64 0
  %79 = call i64 @strlen(ptr noundef %78) #13
  %80 = sub i64 150, %79
  %81 = load i32, ptr %9, align 4, !tbaa !4
  %82 = icmp eq i32 %81, 0
  br i1 %82, label %83, label %84

83:                                               ; preds = %69
  br label %95

84:                                               ; preds = %69
  %85 = call align 8 ptr @llvm.threadlocal.address.p0(ptr align 8 @total_cycles)
  %86 = load i64, ptr %85, align 8, !tbaa !10
  %87 = uitofp i64 %86 to double
  %88 = load i32, ptr %9, align 4, !tbaa !4
  %89 = sext i32 %88 to i64
  %90 = load i32, ptr %10, align 4, !tbaa !4
  %91 = zext i32 %90 to i64
  %92 = mul i64 %89, %91
  %93 = uitofp i64 %92 to double
  %94 = fdiv double %87, %93
  br label %95

95:                                               ; preds = %84, %83
  %96 = phi double [ 0.000000e+00, %83 ], [ %94, %84 ]
  %97 = call i32 (ptr, i64, ptr, ...) @snprintf(ptr noundef %77, i64 noundef %80, ptr noundef @.str.111, i32 noundef 6, double noundef %96) #12
  br label %142

98:                                               ; preds = %66
  %99 = getelementptr inbounds [150 x i8], ptr %17, i64 0, i64 0
  %100 = load ptr, ptr %7, align 8, !tbaa !12
  %101 = load double, ptr %15, align 8, !tbaa !20
  %102 = load ptr, ptr %16, align 8, !tbaa !12
  %103 = load ptr, ptr %18, align 8, !tbaa !27
  %104 = getelementptr inbounds ptr, ptr %103, i64 0
  %105 = load ptr, ptr %104, align 8, !tbaa !12
  %106 = load double, ptr %13, align 8, !tbaa !20
  %107 = load ptr, ptr %18, align 8, !tbaa !27
  %108 = getelementptr inbounds ptr, ptr %107, i64 1
  %109 = load ptr, ptr %108, align 8, !tbaa !12
  %110 = load double, ptr %14, align 8, !tbaa !20
  %111 = load ptr, ptr %16, align 8, !tbaa !12
  %112 = call i32 (ptr, i64, ptr, ...) @snprintf(ptr noundef %99, i64 noundef 150, ptr noundef @.str.112, ptr noundef %100, ptr noundef @.str.113, i32 noundef 5, i32 noundef 0, double noundef %101, ptr noundef %102, ptr noundef %105, i32 noundef 5, i32 noundef 3, double noundef %106, ptr noundef %109, i32 noundef 8, i32 noundef 3, double noundef %110, ptr noundef %111) #12
  %113 = getelementptr inbounds [150 x i8], ptr %17, i64 0, i64 0
  %114 = getelementptr inbounds [150 x i8], ptr %17, i64 0, i64 0
  %115 = call i64 @strlen(ptr noundef %114) #13
  %116 = getelementptr inbounds nuw i8, ptr %113, i64 %115
  %117 = getelementptr inbounds [150 x i8], ptr %17, i64 0, i64 0
  %118 = call i64 @strlen(ptr noundef %117) #13
  %119 = sub i64 150, %118
  %120 = load i32, ptr @lng_index, align 4, !tbaa !4
  %121 = sext i32 %120 to i64
  %122 = getelementptr inbounds [2 x [4 x ptr]], ptr @bench_result_words1, i64 0, i64 %121
  %123 = getelementptr inbounds [4 x ptr], ptr %122, i64 0, i64 2
  %124 = load ptr, ptr %123, align 16, !tbaa !12
  %125 = load i32, ptr %9, align 4, !tbaa !4
  %126 = icmp eq i32 %125, 0
  br i1 %126, label %127, label %128

127:                                              ; preds = %98
  br label %139

128:                                              ; preds = %98
  %129 = call align 8 ptr @llvm.threadlocal.address.p0(ptr align 8 @total_cycles)
  %130 = load i64, ptr %129, align 8, !tbaa !10
  %131 = uitofp i64 %130 to double
  %132 = load i32, ptr %9, align 4, !tbaa !4
  %133 = sext i32 %132 to i64
  %134 = load i32, ptr %10, align 4, !tbaa !4
  %135 = zext i32 %134 to i64
  %136 = mul i64 %133, %135
  %137 = uitofp i64 %136 to double
  %138 = fdiv double %131, %137
  br label %139

139:                                              ; preds = %128, %127
  %140 = phi double [ 0.000000e+00, %127 ], [ %138, %128 ]
  %141 = call i32 (ptr, i64, ptr, ...) @snprintf(ptr noundef %116, i64 noundef %119, ptr noundef @.str.114, ptr noundef %124, i32 noundef 6, i32 noundef 2, double noundef %140) #12
  br label %142

142:                                              ; preds = %139, %95
  %143 = getelementptr inbounds [150 x i8], ptr %17, i64 0, i64 0
  %144 = call i32 (ptr, ...) @printf(ptr noundef @.str.115, ptr noundef %143)
  %145 = load i32, ptr %12, align 4, !tbaa !4
  %146 = icmp slt i32 %145, 0
  br i1 %146, label %147, label %151

147:                                              ; preds = %142
  %148 = load ptr, ptr %7, align 8, !tbaa !12
  %149 = load i32, ptr %12, align 4, !tbaa !4
  %150 = call i32 (ptr, ...) @printf(ptr noundef @.str.116, ptr noundef @err_prefix, ptr noundef %148, i32 noundef %149)
  br label %151

151:                                              ; preds = %147, %142
  %152 = load ptr, ptr @stdout, align 8, !tbaa !14
  %153 = call i32 @fflush(ptr noundef %152)
  br label %154

154:                                              ; preds = %151
  br label %155

155:                                              ; preds = %154
  br label %156

156:                                              ; preds = %155
  call void @llvm.lifetime.end.p0(i64 8, ptr %18) #12
  call void @llvm.lifetime.end.p0(i64 150, ptr %17) #12
  call void @llvm.lifetime.end.p0(i64 8, ptr %16) #12
  call void @llvm.lifetime.end.p0(i64 8, ptr %15) #12
  call void @llvm.lifetime.end.p0(i64 8, ptr %14) #12
  call void @llvm.lifetime.end.p0(i64 8, ptr %13) #12
  ret void
}