; Function Attrs: nounwind uwtable
define internal fastcc void @bench_stats_sym_finish(ptr noundef %0, i32 noundef %1, i32 noundef %2, double noundef %3, i32 noundef %4) unnamed_addr #0 {
  %6 = alloca %struct.timespec, align 8
  %7 = alloca [150 x i8], align 16
  call void @llvm.lifetime.start.p0(i64 150, ptr nonnull %7) #16
  %8 = load i32, ptr @lng_index, align 4, !tbaa !4
  %9 = sext i32 %8 to i64
  %10 = getelementptr inbounds [2 x [4 x ptr]], ptr @bench_result_words1, i64 0, i64 %9
  call void @llvm.memset.p0.i64(ptr noundef nonnull align 16 dereferenceable(150) %7, i8 0, i64 150, i1 false)
  %11 = tail call { i32, i32 } asm sideeffect "cpuid\0A\09rdtsc", "={ax},={dx},{ax},~{ebx},~{ecx},~{dirflag},~{fpsr},~{flags}"(i32 0) #16, !srcloc !20
  %12 = extractvalue { i32, i32 } %11, 0
  %13 = extractvalue { i32, i32 } %11, 1
  %14 = zext i32 %12 to i64
  %15 = zext i32 %13 to i64
  %16 = shl nuw i64 %15, 32
  %17 = tail call align 8 ptr @llvm.threadlocal.address.p0(ptr align 8 @total_cycles)
  %18 = load i64, ptr %17, align 8, !tbaa !21
  %19 = sub i64 %14, %18
  %20 = add i64 %19, %16
  store i64 %20, ptr %17, align 8, !tbaa !21
  call void @llvm.lifetime.start.p0(i64 16, ptr nonnull %6) #16
  %21 = call i32 @clock_gettime(i32 noundef 0, ptr noundef nonnull %6) #16
  %22 = icmp slt i32 %21, 0
  br i1 %22, label %23, label %current_time.exit

23:                                               ; preds = %5
  %24 = tail call ptr @__errno_location() #17
  %25 = load i32, ptr %24, align 4, !tbaa !4
  %26 = call i32 (ptr, ...) @printf(ptr noundef nonnull dereferenceable(1) @.str.78, ptr noundef nonnull @.str.113, ptr noundef nonnull @.str.79, i32 noundef 14994, i32 noundef %25, ptr noundef nonnull @.str.80)
  %27 = load ptr, ptr @stdout, align 8, !tbaa !14
  %28 = call i32 @fflush(ptr noundef %27)
  call void @_exit(i32 noundef 1) #18
  unreachable

current_time.exit:                                ; preds = %5
  %29 = sitofp i32 %1 to double
  %30 = load i64, ptr %6, align 8, !tbaa !16
  %31 = sitofp i64 %30 to double
  %32 = getelementptr inbounds nuw i8, ptr %6, i64 8
  %33 = load i64, ptr %32, align 8, !tbaa !19
  %34 = sitofp i64 %33 to double
  %35 = fdiv double %34, 1.000000e+09
  %36 = fadd double %35, %31
  call void @llvm.lifetime.end.p0(i64 16, ptr nonnull %6) #16
  %37 = fsub double %36, %3
  %38 = uitofp i32 %2 to double
  %39 = fmul double %29, %38
  %.b27 = load i1, ptr @csv_format, align 4
  %.b29 = load i1, ptr @bench_stats_sym_finish.sym_header_printed, align 4
  %not..b27 = xor i1 %.b27, true
  %40 = select i1 %not..b27, i1 true, i1 %.b29
  br i1 %40, label %43, label %41

41:                                               ; preds = %current_time.exit
  %puts = call i32 @puts(ptr nonnull dereferenceable(1) @str)
  %42 = call i32 (ptr, ...) @printf(ptr noundef nonnull dereferenceable(1) @.str.109)
  %putchar = call i32 @putchar(i32 10)
  store i1 true, ptr @bench_stats_sym_finish.sym_header_printed, align 4
  br label %43

43:                                               ; preds = %41, %current_time.exit
  %.b28 = load i1, ptr @base2, align 4
  br i1 %.b28, label %49, label %44

44:                                               ; preds = %43
  %45 = fcmp ogt double %39, 0x4130000000000000
  br i1 %45, label %.sink.split.i, label %46

46:                                               ; preds = %44
  %47 = fcmp ogt double %39, 1.024000e+03
  br i1 %47, label %.sink.split.i, label %get_blocktype.exit

.sink.split.i:                                    ; preds = %46, %44
  %.sink6.i = phi double [ 0x3EB0000000000000, %44 ], [ 0x3F50000000000000, %46 ]
  %.0.ph.i = phi ptr [ @.str.123, %44 ], [ @.str.124, %46 ]
  %48 = fmul double %39, %.sink6.i
  br label %get_blocktype.exit

49:                                               ; preds = %43
  %50 = fcmp ogt double %39, 1.000000e+06
  br i1 %50, label %.sink.split.i31, label %51

51:                                               ; preds = %49
  %52 = fcmp ogt double %39, 1.000000e+03
  br i1 %52, label %.sink.split.i31, label %get_blocktype.exit

.sink.split.i31:                                  ; preds = %51, %49
  %.sink6.i32 = phi double [ 1.000000e+06, %49 ], [ 1.000000e+03, %51 ]
  %.0.ph.i33 = phi ptr [ @.str.126, %49 ], [ @.str.127, %51 ]
  %53 = fdiv double %39, %.sink6.i32
  br label %get_blocktype.exit

get_blocktype.exit:                               ; preds = %.sink.split.i31, %51, %.sink.split.i, %46
  %.038 = phi double [ %48, %.sink.split.i ], [ %39, %46 ], [ %53, %.sink.split.i31 ], [ %39, %51 ]
  %.023 = phi ptr [ %.0.ph.i, %.sink.split.i ], [ @.str.125, %46 ], [ %.0.ph.i33, %.sink.split.i31 ], [ @.str.125, %51 ]
  %54 = fcmp ogt double %37, 0.000000e+00
  %55 = fdiv double 1.000000e+00, %37
  %56 = fmul double %55, %.038
  %.0 = select i1 %54, double %56, double 0.000000e+00
  %.b = load i1, ptr @csv_format, align 4
  br i1 %.b, label %57, label %74

57:                                               ; preds = %get_blocktype.exit
  %58 = call i32 (ptr, i64, ptr, ...) @snprintf(ptr noundef nonnull dereferenceable(1) %7, i64 noundef 150, ptr noundef nonnull @.str.110, ptr noundef %0, double noundef %.0) #16
  %59 = call i64 @strlen(ptr noundef nonnull dereferenceable(1) %7) #19
  %60 = getelementptr inbounds nuw i8, ptr %7, i64 %59
  %61 = sub i64 150, %59
  %62 = icmp eq i32 %1, 0
  br i1 %62, label %71, label %63

63:                                               ; preds = %57
  %64 = load i64, ptr %17, align 8, !tbaa !21
  %65 = uitofp i64 %64 to double
  %66 = sext i32 %1 to i64
  %67 = zext i32 %2 to i64
  %68 = mul nsw i64 %67, %66
  %69 = uitofp i64 %68 to double
  %70 = fdiv double %65, %69
  br label %71

71:                                               ; preds = %57, %63
  %72 = phi double [ %70, %63 ], [ 0.000000e+00, %57 ]
  %73 = call i32 (ptr, i64, ptr, ...) @snprintf(ptr noundef nonnull %60, i64 noundef %61, ptr noundef nonnull @.str.111, i32 noundef 6, double noundef %72) #16
  br label %98

74:                                               ; preds = %get_blocktype.exit
  %75 = load ptr, ptr %10, align 16, !tbaa !8
  %76 = getelementptr inbounds nuw i8, ptr %10, i64 8
  %77 = load ptr, ptr %76, align 8, !tbaa !8
  %78 = call i32 (ptr, i64, ptr, ...) @snprintf(ptr noundef nonnull dereferenceable(1) %7, i64 noundef 150, ptr noundef nonnull @.str.112, ptr noundef %0, ptr noundef nonnull @.str.113, i32 noundef 5, i32 noundef 0, double noundef %.038, ptr noundef nonnull %.023, ptr noundef %75, i32 noundef 5, i32 noundef 3, double noundef %37, ptr noundef %77, i32 noundef 8, i32 noundef 3, double noundef %.0, ptr noundef nonnull %.023) #16
  %79 = call i64 @strlen(ptr noundef nonnull dereferenceable(1) %7) #19
  %80 = getelementptr inbounds nuw i8, ptr %7, i64 %79
  %81 = sub i64 150, %79
  %82 = load i32, ptr @lng_index, align 4, !tbaa !4
  %83 = sext i32 %82 to i64
  %84 = getelementptr inbounds [2 x [4 x ptr]], ptr @bench_result_words1, i64 0, i64 %83, i64 2
  %85 = load ptr, ptr %84, align 16, !tbaa !8
  %86 = icmp eq i32 %1, 0
  br i1 %86, label %95, label %87

87:                                               ; preds = %74
  %88 = load i64, ptr %17, align 8, !tbaa !21
  %89 = uitofp i64 %88 to double
  %90 = sext i32 %1 to i64
  %91 = zext i32 %2 to i64
  %92 = mul nsw i64 %91, %90
  %93 = uitofp i64 %92 to double
  %94 = fdiv double %89, %93
  br label %95

95:                                               ; preds = %74, %87
  %96 = phi double [ %94, %87 ], [ 0.000000e+00, %74 ]
  %97 = call i32 (ptr, i64, ptr, ...) @snprintf(ptr noundef nonnull %80, i64 noundef %81, ptr noundef nonnull @.str.114, ptr noundef %85, i32 noundef 6, i32 noundef 2, double noundef %96) #16
  br label %98

98:                                               ; preds = %95, %71
  %99 = call i32 (ptr, ...) @printf(ptr noundef nonnull dereferenceable(1) @.str.115, ptr noundef nonnull %7)
  %100 = icmp slt i32 %4, 0
  br i1 %100, label %101, label %103

101:                                              ; preds = %98
  %102 = call i32 (ptr, ...) @printf(ptr noundef nonnull dereferenceable(1) @.str.116, ptr noundef nonnull @.str.113, ptr noundef %0, i32 noundef %4)
  br label %103

103:                                              ; preds = %101, %98
  %104 = load ptr, ptr @stdout, align 8, !tbaa !14
  %105 = call i32 @fflush(ptr noundef %104)
  call void @llvm.lifetime.end.p0(i64 150, ptr nonnull %7) #16
  ret void
}